target datalayout = "e-m:e-p270:32:32-p271:32:32-p272:64:64-i64:64-i128:128-f80:128-n8:16:32:64-S128"
target triple = "x86_64-pc-linux-gnu"

%struct.FLAC__Subframe_Verbatim = type { %union.anon.2, i32 }
%union.anon.2 = type { ptr }

@FLAC__SUBFRAME_ZERO_PAD_LEN = external constant i32, align 4
@FLAC__SUBFRAME_TYPE_LEN = external constant i32, align 4
@FLAC__SUBFRAME_WASTED_BITS_FLAG_LEN = external constant i32, align 4
@FLAC__SUBFRAME_TYPE_VERBATIM_BYTE_ALIGNED_MASK = external constant i32, align 4

; Function Attrs: nounwind sspstrong uwtable
define hidden i32 @FLAC__subframe_add_verbatim(ptr noundef %0, i32 noundef %1, i32 noundef %2, i32 noundef %3, ptr noundef %4) #0 {
  %6 = alloca i32, align 4
  %7 = alloca ptr, align 8
  %8 = alloca i32, align 4
  %9 = alloca i32, align 4
  %10 = alloca i32, align 4
  %11 = alloca ptr, align 8
  %12 = alloca i32, align 4
  %13 = alloca i32, align 4
  %14 = alloca ptr, align 8
  %15 = alloca ptr, align 8
  store ptr %0, ptr %7, align 8, !tbaa !30
  store i32 %1, ptr %8, align 4, !tbaa !10
  store i32 %2, ptr %9, align 4, !tbaa !10
  store i32 %3, ptr %10, align 4, !tbaa !10
  store ptr %4, ptr %11, align 8, !tbaa !8
  call void @llvm.lifetime.start.p0(i64 4, ptr %12) #4
  %16 = load ptr, ptr %11, align 8, !tbaa !8
  %17 = load i32, ptr @FLAC__SUBFRAME_TYPE_VERBATIM_BYTE_ALIGNED_MASK, align 4, !tbaa !10
  %18 = load i32, ptr %10, align 4, !tbaa !10
  %19 = icmp ne i32 %18, 0
  %20 = select i1 %19, i32 1, i32 0
  %21 = or i32 %17, %20
  %22 = load i32, ptr @FLAC__SUBFRAME_ZERO_PAD_LEN, align 4, !tbaa !10
  %23 = load i32, ptr @FLAC__SUBFRAME_TYPE_LEN, align 4, !tbaa !10
  %24 = add i32 %22, %23
  %25 = load i32, ptr @FLAC__SUBFRAME_WASTED_BITS_FLAG_LEN, align 4, !tbaa !10
  %26 = add i32 %24, %25
  %27 = call i32 @FLAC__bitwriter_write_raw_uint32(ptr noundef %16, i32 noundef %21, i32 noundef %26)
  %28 = icmp ne i32 %27, 0
  br i1 %28, label %30, label %29

29:                                               ; preds = %5
  store i32 0, ptr %6, align 4
  store i32 1, ptr %13, align 4
  br label %101

30:                                               ; preds = %5
  %31 = load i32, ptr %10, align 4, !tbaa !10
  %32 = icmp ne i32 %31, 0
  br i1 %32, label %33, label %41

33:                                               ; preds = %30
  %34 = load ptr, ptr %11, align 8, !tbaa !8
  %35 = load i32, ptr %10, align 4, !tbaa !10
  %36 = sub i32 %35, 1
  %37 = call i32 @FLAC__bitwriter_write_unary_unsigned(ptr noundef %34, i32 noundef %36)
  %38 = icmp ne i32 %37, 0
  br i1 %38, label %40, label %39

39:                                               ; preds = %33
  store i32 0, ptr %6, align 4
  store i32 1, ptr %13, align 4
  br label %101

40:                                               ; preds = %33
  br label %41

41:                                               ; preds = %40, %30
  %42 = load ptr, ptr %7, align 8, !tbaa !30
  %43 = getelementptr inbounds nuw %struct.FLAC__Subframe_Verbatim, ptr %42, i32 0, i32 1
  %44 = load i32, ptr %43, align 8, !tbaa !74
  %45 = icmp eq i32 %44, 0
  br i1 %45, label %46, label %73

46:                                               ; preds = %41
  call void @llvm.lifetime.start.p0(i64 8, ptr %14) #4
  %47 = load ptr, ptr %7, align 8, !tbaa !30
  %48 = getelementptr inbounds nuw %struct.FLAC__Subframe_Verbatim, ptr %47, i32 0, i32 0
  %49 = load ptr, ptr %48, align 8, !tbaa !18
  store ptr %49, ptr %14, align 8, !tbaa !62
  store i32 0, ptr %12, align 4, !tbaa !10
  br label %50

50:                                               ; preds = %66, %46
  %51 = load i32, ptr %12, align 4, !tbaa !10
  %52 = load i32, ptr %8, align 4, !tbaa !10
  %53 = icmp ult i32 %51, %52
  br i1 %53, label %54, label %69

54:                                               ; preds = %50
  %55 = load ptr, ptr %11, align 8, !tbaa !8
  %56 = load ptr, ptr %14, align 8, !tbaa !62
  %57 = load i32, ptr %12, align 4, !tbaa !10
  %58 = zext i32 %57 to i64
  %59 = getelementptr inbounds nuw i32, ptr %56, i64 %58
  %60 = load i32, ptr %59, align 4, !tbaa !10
  %61 = load i32, ptr %9, align 4, !tbaa !10
  %62 = call i32 @FLAC__bitwriter_write_raw_int32(ptr noundef %55, i32 noundef %60, i32 noundef %61)
  %63 = icmp ne i32 %62, 0
  br i1 %63, label %65, label %64

64:                                               ; preds = %54
  store i32 0, ptr %6, align 4
  store i32 1, ptr %13, align 4
  br label %70

65:                                               ; preds = %54
  br label %66

66:                                               ; preds = %65
  %67 = load i32, ptr %12, align 4, !tbaa !10
  %68 = add i32 %67, 1
  store i32 %68, ptr %12, align 4, !tbaa !10
  br label %50, !llvm.loop !76

69:                                               ; preds = %50
  store i32 0, ptr %13, align 4
  br label %70

70:                                               ; preds = %69, %64
  call void @llvm.lifetime.end.p0(i64 8, ptr %14) #4
  %71 = load i32, ptr %13, align 4
  switch i32 %71, label %101 [
    i32 0, label %72
  ]

72:                                               ; preds = %70
  br label %100

73:                                               ; preds = %41
  call void @llvm.lifetime.start.p0(i64 8, ptr %15) #4
  %74 = load ptr, ptr %7, align 8, !tbaa !30
  %75 = getelementptr inbounds nuw %struct.FLAC__Subframe_Verbatim, ptr %74, i32 0, i32 0
  %76 = load ptr, ptr %75, align 8, !tbaa !18
  store ptr %76, ptr %15, align 8, !tbaa !77
  store i32 0, ptr %12, align 4, !tbaa !10
  br label %77

77:                                               ; preds = %93, %73
  %78 = load i32, ptr %12, align 4, !tbaa !10
  %79 = load i32, ptr %8, align 4, !tbaa !10
  %80 = icmp ult i32 %78, %79
  br i1 %80, label %81, label %96

81:                                               ; preds = %77
  %82 = load ptr, ptr %11, align 8, !tbaa !8
  %83 = load ptr, ptr %15, align 8, !tbaa !77
  %84 = load i32, ptr %12, align 4, !tbaa !10
  %85 = zext i32 %84 to i64
  %86 = getelementptr inbounds nuw i64, ptr %83, i64 %85
  %87 = load i64, ptr %86, align 8, !tbaa !41
  %88 = load i32, ptr %9, align 4, !tbaa !10
  %89 = call i32 @FLAC__bitwriter_write_raw_int64(ptr noundef %82, i64 noundef %87, i32 noundef %88)
  %90 = icmp ne i32 %89, 0
  br i1 %90, label %92, label %91

91:                                               ; preds = %81
  store i32 0, ptr %6, align 4
  store i32 1, ptr %13, align 4
  br label %97

92:                                               ; preds = %81
  br label %93

93:                                               ; preds = %92
  %94 = load i32, ptr %12, align 4, !tbaa !10
  %95 = add i32 %94, 1
  store i32 %95, ptr %12, align 4, !tbaa !10
  br label %77, !llvm.loop !79

96:                                               ; preds = %77
  store i32 0, ptr %13, align 4
  br label %97

97:                                               ; preds = %96, %91
  call void @llvm.lifetime.end.p0(i64 8, ptr %15) #4
  %98 = load i32, ptr %13, align 4
  switch i32 %98, label %101 [
    i32 0, label %99
  ]

99:                                               ; preds = %97
  br label %100

100:                                              ; preds = %99, %72
  store i32 1, ptr %6, align 4
  store i32 1, ptr %13, align 4
  br label %101

101:                                              ; preds = %100, %97, %70, %39, %29
  call void @llvm.lifetime.end.p0(i64 4, ptr %12) #4
  %102 = load i32, ptr %6, align 4
  ret i32 %102
}