; Function Attrs: nounwind sspstrong uwtable
define hidden range(i32 0, 2) i32 @FLAC__subframe_add_verbatim(ptr noundef readonly captures(none) %0, i32 noundef %1, i32 noundef %2, i32 noundef %3, ptr noundef %4) local_unnamed_addr #0 {
  %6 = load i32, ptr @FLAC__SUBFRAME_TYPE_VERBATIM_BYTE_ALIGNED_MASK, align 4, !tbaa !11
  %.not = icmp ne i32 %3, 0
  %7 = zext i1 %.not to i32
  %8 = or i32 %6, %7
  %9 = load i32, ptr @FLAC__SUBFRAME_ZERO_PAD_LEN, align 4, !tbaa !11
  %10 = load i32, ptr @FLAC__SUBFRAME_TYPE_LEN, align 4, !tbaa !11
  %11 = add i32 %10, %9
  %12 = load i32, ptr @FLAC__SUBFRAME_WASTED_BITS_FLAG_LEN, align 4, !tbaa !11
  %13 = add i32 %11, %12
  %14 = tail call i32 @FLAC__bitwriter_write_raw_uint32(ptr noundef %4, i32 noundef %8, i32 noundef %13) #6
  %.not30 = icmp eq i32 %14, 0
  br i1 %.not30, label %.critedge, label %15

15:                                               ; preds = %5
  br i1 %.not, label %16, label %19

16:                                               ; preds = %15
  %17 = add i32 %3, -1
  %18 = tail call i32 @FLAC__bitwriter_write_unary_unsigned(ptr noundef %4, i32 noundef %17) #6
  %.not31 = icmp eq i32 %18, 0
  br i1 %.not31, label %.critedge, label %19

19:                                               ; preds = %16, %15
  %20 = getelementptr inbounds nuw i8, ptr %0, i64 8
  %21 = load i32, ptr %20, align 8, !tbaa !68
  %22 = icmp eq i32 %21, 0
  %23 = load ptr, ptr %0, align 8, !tbaa !14
  %.not3544.not = icmp eq i32 %1, 0
  br i1 %22, label %24, label %29

24:                                               ; preds = %19
  br i1 %.not3544.not, label %.critedge, label %.lr.ph46.preheader

.lr.ph46.preheader:                               ; preds = %24
  %wide.trip.count56 = zext i32 %1 to i64
  br label %.lr.ph46

25:                                               ; preds = %.lr.ph46
  %indvars.iv.next54 = add nuw nsw i64 %indvars.iv53, 1
  %exitcond57.not = icmp eq i64 %indvars.iv.next54, %wide.trip.count56
  br i1 %exitcond57.not, label %.critedge, label %.lr.ph46, !llvm.loop !70

.lr.ph46:                                         ; preds = %.lr.ph46.preheader, %25
  %indvars.iv53 = phi i64 [ 0, %.lr.ph46.preheader ], [ %indvars.iv.next54, %25 ]
  %26 = getelementptr inbounds nuw i32, ptr %23, i64 %indvars.iv53
  %27 = load i32, ptr %26, align 4, !tbaa !11
  %28 = tail call i32 @FLAC__bitwriter_write_raw_int32(ptr noundef %4, i32 noundef %27, i32 noundef %2) #6
  %.not34 = icmp eq i32 %28, 0
  br i1 %.not34, label %.critedge, label %25

29:                                               ; preds = %19
  br i1 %.not3544.not, label %.critedge, label %.lr.ph.preheader

.lr.ph.preheader:                                 ; preds = %29
  %wide.trip.count = zext i32 %1 to i64
  br label %.lr.ph

30:                                               ; preds = %.lr.ph
  %indvars.iv.next = add nuw nsw i64 %indvars.iv, 1
  %exitcond.not = icmp eq i64 %indvars.iv.next, %wide.trip.count
  br i1 %exitcond.not, label %.critedge, label %.lr.ph, !llvm.loop !71

.lr.ph:                                           ; preds = %.lr.ph.preheader, %30
  %indvars.iv = phi i64 [ 0, %.lr.ph.preheader ], [ %indvars.iv.next, %30 ]
  %31 = getelementptr inbounds nuw i64, ptr %23, i64 %indvars.iv
  %32 = load i64, ptr %31, align 8, !tbaa !50
  %33 = tail call i32 @FLAC__bitwriter_write_raw_int64(ptr noundef %4, i64 noundef %32, i32 noundef %2) #6
  %.not32 = icmp eq i32 %33, 0
  br i1 %.not32, label %.critedge, label %30

.critedge:                                        ; preds = %.lr.ph, %30, %.lr.ph46, %25, %29, %24, %16, %5
  %.0 = phi i32 [ 0, %5 ], [ 0, %16 ], [ 1, %24 ], [ 1, %29 ], [ 0, %.lr.ph46 ], [ 1, %25 ], [ 0, %.lr.ph ], [ 1, %30 ]
  ret i32 %.0
}